; Function Attrs: null_pointer_is_valid sspstrong uwtable
define hidden noundef ptr @new_pducfg(ptr noundef readonly captures(none) %0, ptr noundef %1) local_unnamed_addr #0 {
  %3 = tail call noalias dereferenceable_or_null(112) ptr @g_malloc(i64 noundef 112) #8
  %4 = tail call noalias ptr @g_strdup(ptr noundef %1)
  store ptr %4, ptr %3, align 8
  %5 = getelementptr inbounds nuw i8, ptr %3, i64 8
  store i32 0, ptr %5, align 8
  %6 = tail call ptr @g_hash_table_new(ptr noundef nonnull @g_direct_hash, ptr noundef nonnull @g_direct_equal)
  %7 = getelementptr inbounds nuw i8, ptr %3, i64 16
  store ptr %6, ptr %7, align 8
  %8 = getelementptr inbounds nuw i8, ptr %3, i64 24
  store ptr null, ptr %8, align 8
  %9 = getelementptr inbounds nuw i8, ptr %3, i64 32
  store i32 -1, ptr %9, align 8
  %10 = getelementptr inbounds nuw i8, ptr %3, i64 40
  store i32 -1, ptr %10, align 8
  %11 = getelementptr inbounds nuw i8, ptr %3, i64 44
  store i32 -1, ptr %11, align 4
  %12 = tail call ptr @g_hash_table_new(ptr noundef nonnull @g_str_hash, ptr noundef nonnull @g_str_equal)
  %13 = getelementptr inbounds nuw i8, ptr %3, i64 48
  store ptr %12, ptr %13, align 8
  %14 = getelementptr inbounds nuw i8, ptr %3, i64 56
  store i32 -1, ptr %14, align 8
  %15 = getelementptr inbounds nuw i8, ptr %3, i64 60
  store i32 -1, ptr %15, align 4
  %16 = getelementptr inbounds nuw i8, ptr %3, i64 96
  %17 = getelementptr inbounds nuw i8, ptr %0, i64 80
  tail call void @llvm.memset.p0.i64(ptr noundef nonnull align 8 dereferenceable(16) %16, i8 0, i64 16, i1 false)
  %18 = load ptr, ptr %17, align 8
  tail call void @g_ptr_array_add(ptr noundef %18, ptr noundef %3)
  %19 = getelementptr inbounds nuw i8, ptr %0, i64 48
  %20 = load ptr, ptr %19, align 8
  %21 = load ptr, ptr %3, align 8
  %22 = tail call i32 @g_hash_table_insert(ptr noundef %20, ptr noundef %21, ptr noundef %3)
  %23 = tail call ptr @g_hash_table_new(ptr noundef nonnull @g_int_hash, ptr noundef nonnull @g_int_equal)
  %24 = getelementptr inbounds nuw i8, ptr %3, i64 64
  store ptr %23, ptr %24, align 8
  ret ptr %3
}